target datalayout = "e-m:e-p270:32:32-p271:32:32-p272:64:64-i64:64-i128:128-f80:128-n8:16:32:64-S128"
target triple = "x86_64-pc-linux-gnu"

%struct.epan_session = type { ptr, %struct.packet_provider_funcs }
%struct.packet_provider_funcs = type { ptr, ptr, ptr, ptr }

; Function Attrs: null_pointer_is_valid sspstrong uwtable
define ptr @epan_get_interface_description(ptr noundef %0, i32 noundef %1, i32 noundef %2) #5 {
  %4 = alloca ptr, align 8
  %5 = alloca ptr, align 8
  %6 = alloca i32, align 4
  %7 = alloca i32, align 4
  store ptr %0, ptr %5, align 8
  store i32 %1, ptr %6, align 4
  store i32 %2, ptr %7, align 4
  %8 = load ptr, ptr %5, align 8
  %9 = getelementptr inbounds nuw %struct.epan_session, ptr %8, i32 0, i32 1
  %10 = getelementptr inbounds nuw %struct.packet_provider_funcs, ptr %9, i32 0, i32 2
  %11 = load ptr, ptr %10, align 8
  %12 = icmp ne ptr %11, null
  br i1 %12, label %13, label %24

13:                                               ; preds = %3
  %14 = load ptr, ptr %5, align 8
  %15 = getelementptr inbounds nuw %struct.epan_session, ptr %14, i32 0, i32 1
  %16 = getelementptr inbounds nuw %struct.packet_provider_funcs, ptr %15, i32 0, i32 2
  %17 = load ptr, ptr %16, align 8
  %18 = load ptr, ptr %5, align 8
  %19 = getelementptr inbounds nuw %struct.epan_session, ptr %18, i32 0, i32 0
  %20 = load ptr, ptr %19, align 8
  %21 = load i32, ptr %6, align 4
  %22 = load i32, ptr %7, align 4
  %23 = call ptr %17(ptr noundef %20, i32 noundef %21, i32 noundef %22)
  store ptr %23, ptr %4, align 8
  br label %25

24:                                               ; preds = %3
  store ptr null, ptr %4, align 8
  br label %25

25:                                               ; preds = %24, %13
  %26 = load ptr, ptr %4, align 8
  ret ptr %26
}